target datalayout = "e-m:e-p270:32:32-p271:32:32-p272:64:64-i64:64-i128:128-f80:128-n8:16:32:64-S128"
target triple = "x86_64-pc-linux-gnu"

%"class.cv::BmpDecoder" = type { %"class.cv::BaseImageDecoder", %"class.cv::RLByteStream", [256 x %"struct.cv::PaletteEntry"], i32, i32, i32, i32, [4 x i32], [4 x i32], [4 x float] }
%"class.cv::BaseImageDecoder" = type { ptr, i32, i32, i32, i32, %"class.std::__cxx11::basic_string", %"class.std::__cxx11::basic_string", %"class.cv::Mat", i8, i8, [6 x i8], %"class.cv::ExifReader", i64, %"struct.cv::Animation" }
%"class.std::__cxx11::basic_string" = type { %"struct.std::__cxx11::basic_string<char>::_Alloc_hider", i64, %union.anon }
%"struct.std::__cxx11::basic_string<char>::_Alloc_hider" = type { ptr }
%union.anon = type { i64, [8 x i8] }
%"class.cv::Mat" = type { i32, i32, i32, i32, ptr, ptr, ptr, ptr, ptr, ptr, %"struct.cv::MatSize", %"struct.cv::MatStep" }
%"struct.cv::MatSize" = type { ptr }
%"struct.cv::MatStep" = type { ptr, [2 x i64] }
%"class.cv::ExifReader" = type <{ %"class.std::vector", %"class.std::map", i32, [4 x i8] }>
%"class.std::vector" = type { %"struct.std::_Vector_base" }
%"struct.std::_Vector_base" = type { %"struct.std::_Vector_base<unsigned char, std::allocator<unsigned char>>::_Vector_impl" }
%"struct.std::_Vector_base<unsigned char, std::allocator<unsigned char>>::_Vector_impl" = type { %"struct.std::_Vector_base<unsigned char, std::allocator<unsigned char>>::_Vector_impl_data" }
%"struct.std::_Vector_base<unsigned char, std::allocator<unsigned char>>::_Vector_impl_data" = type { ptr, ptr, ptr }
%"class.std::map" = type { %"class.std::_Rb_tree" }
%"class.std::_Rb_tree" = type { %"struct.std::_Rb_tree<int, std::pair<const int, cv::ExifEntry_t>, std::_Select1st<std::pair<const int, cv::ExifEntry_t>>, std::less<int>>::_Rb_tree_impl" }
%"struct.std::_Rb_tree<int, std::pair<const int, cv::ExifEntry_t>, std::_Select1st<std::pair<const int, cv::ExifEntry_t>>, std::less<int>>::_Rb_tree_impl" = type { [8 x i8], %"struct.std::_Rb_tree_header" }
%"struct.std::_Rb_tree_header" = type { %"struct.std::_Rb_tree_node_base", i64 }
%"struct.std::_Rb_tree_node_base" = type { i32, ptr, ptr, ptr }
%"struct.cv::Animation" = type { i32, %"class.cv::Scalar_", %"class.std::vector.6", %"class.std::vector.11" }
%"class.cv::Scalar_" = type { %"class.cv::Vec" }
%"class.cv::Vec" = type { %"class.cv::Matx" }
%"class.cv::Matx" = type { [4 x double] }
%"class.std::vector.6" = type { %"struct.std::_Vector_base.7" }
%"struct.std::_Vector_base.7" = type { %"struct.std::_Vector_base<int, std::allocator<int>>::_Vector_impl" }
%"struct.std::_Vector_base<int, std::allocator<int>>::_Vector_impl" = type { %"struct.std::_Vector_base<int, std::allocator<int>>::_Vector_impl_data" }
%"struct.std::_Vector_base<int, std::allocator<int>>::_Vector_impl_data" = type { ptr, ptr, ptr }
%"class.std::vector.11" = type { %"struct.std::_Vector_base.12" }
%"struct.std::_Vector_base.12" = type { %"struct.std::_Vector_base<cv::Mat, std::allocator<cv::Mat>>::_Vector_impl" }
%"struct.std::_Vector_base<cv::Mat, std::allocator<cv::Mat>>::_Vector_impl" = type { %"struct.std::_Vector_base<cv::Mat, std::allocator<cv::Mat>>::_Vector_impl_data" }
%"struct.std::_Vector_base<cv::Mat, std::allocator<cv::Mat>>::_Vector_impl_data" = type { ptr, ptr, ptr }
%"class.cv::RLByteStream" = type { %"class.cv::RBaseStream.base", [7 x i8] }
%"class.cv::RBaseStream.base" = type <{ ptr, i8, [7 x i8], ptr, ptr, ptr, ptr, i32, i32, i8 }>
%"struct.cv::PaletteEntry" = type { i8, i8, i8, i8 }

; Function Attrs: mustprogress nounwind uwtable
define hidden void @_ZN2cv10BmpDecoder8maskBGRAEPhPKhib(ptr noundef nonnull align 8 dereferenceable(1520) %0, ptr noundef %1, ptr noundef %2, i32 noundef %3, i1 noundef zeroext %4) #6 align 2 {
  %6 = alloca ptr, align 8
  %7 = alloca ptr, align 8
  %8 = alloca ptr, align 8
  %9 = alloca i32, align 4
  %10 = alloca i8, align 1
  %11 = alloca i32, align 4
  %12 = alloca i32, align 4
  %13 = alloca i32, align 4
  store ptr %0, ptr %6, align 8, !tbaa !3
  store ptr %1, ptr %7, align 8, !tbaa !10
  store ptr %2, ptr %8, align 8, !tbaa !10
  store i32 %3, ptr %9, align 4, !tbaa !80
  %14 = zext i1 %4 to i8
  store i8 %14, ptr %10, align 1, !tbaa !79
  %15 = load ptr, ptr %6, align 8
  call void @llvm.lifetime.start.p0(i64 4, ptr %11) #3
  %16 = load i8, ptr %10, align 1, !tbaa !79, !range !91, !noundef !92
  %17 = trunc i8 %16 to i1
  %18 = select i1 %17, i32 4, i32 3
  store i32 %18, ptr %11, align 4, !tbaa !80
  call void @llvm.lifetime.start.p0(i64 4, ptr %12) #3
  store i32 0, ptr %12, align 4, !tbaa !80
  br label %19

19:                                               ; preds = %108, %5
  %20 = load i32, ptr %12, align 4, !tbaa !80
  %21 = load i32, ptr %9, align 4, !tbaa !80
  %22 = icmp slt i32 %20, %21
  br i1 %22, label %24, label %23

23:                                               ; preds = %19
  call void @llvm.lifetime.end.p0(i64 4, ptr %12) #3
  br label %117

24:                                               ; preds = %19
  call void @llvm.lifetime.start.p0(i64 4, ptr %13) #3
  %25 = load ptr, ptr %8, align 8, !tbaa !10
  %26 = load i32, ptr %25, align 4, !tbaa !80
  store i32 %26, ptr %13, align 4, !tbaa !80
  %27 = getelementptr inbounds nuw %"class.cv::BmpDecoder", ptr %15, i32 0, i32 7
  %28 = getelementptr inbounds [4 x i32], ptr %27, i64 0, i64 2
  %29 = load i32, ptr %28, align 8, !tbaa !80
  %30 = load i32, ptr %13, align 4, !tbaa !80
  %31 = and i32 %29, %30
  %32 = getelementptr inbounds nuw %"class.cv::BmpDecoder", ptr %15, i32 0, i32 8
  %33 = getelementptr inbounds [4 x i32], ptr %32, i64 0, i64 2
  %34 = load i32, ptr %33, align 8, !tbaa !80
  %35 = lshr i32 %31, %34
  %36 = uitofp i32 %35 to float
  %37 = getelementptr inbounds nuw %"class.cv::BmpDecoder", ptr %15, i32 0, i32 9
  %38 = getelementptr inbounds [4 x float], ptr %37, i64 0, i64 2
  %39 = load float, ptr %38, align 8, !tbaa !69
  %40 = fmul float %36, %39
  %41 = fptoui float %40 to i8
  %42 = load ptr, ptr %7, align 8, !tbaa !10
  %43 = getelementptr inbounds i8, ptr %42, i64 0
  store i8 %41, ptr %43, align 1, !tbaa !85
  %44 = getelementptr inbounds nuw %"class.cv::BmpDecoder", ptr %15, i32 0, i32 7
  %45 = getelementptr inbounds [4 x i32], ptr %44, i64 0, i64 1
  %46 = load i32, ptr %45, align 4, !tbaa !80
  %47 = load i32, ptr %13, align 4, !tbaa !80
  %48 = and i32 %46, %47
  %49 = getelementptr inbounds nuw %"class.cv::BmpDecoder", ptr %15, i32 0, i32 8
  %50 = getelementptr inbounds [4 x i32], ptr %49, i64 0, i64 1
  %51 = load i32, ptr %50, align 4, !tbaa !80
  %52 = lshr i32 %48, %51
  %53 = uitofp i32 %52 to float
  %54 = getelementptr inbounds nuw %"class.cv::BmpDecoder", ptr %15, i32 0, i32 9
  %55 = getelementptr inbounds [4 x float], ptr %54, i64 0, i64 1
  %56 = load float, ptr %55, align 4, !tbaa !69
  %57 = fmul float %53, %56
  %58 = fptoui float %57 to i8
  %59 = load ptr, ptr %7, align 8, !tbaa !10
  %60 = getelementptr inbounds i8, ptr %59, i64 1
  store i8 %58, ptr %60, align 1, !tbaa !85
  %61 = getelementptr inbounds nuw %"class.cv::BmpDecoder", ptr %15, i32 0, i32 7
  %62 = getelementptr inbounds [4 x i32], ptr %61, i64 0, i64 0
  %63 = load i32, ptr %62, align 8, !tbaa !80
  %64 = load i32, ptr %13, align 4, !tbaa !80
  %65 = and i32 %63, %64
  %66 = getelementptr inbounds nuw %"class.cv::BmpDecoder", ptr %15, i32 0, i32 8
  %67 = getelementptr inbounds [4 x i32], ptr %66, i64 0, i64 0
  %68 = load i32, ptr %67, align 8, !tbaa !80
  %69 = lshr i32 %65, %68
  %70 = uitofp i32 %69 to float
  %71 = getelementptr inbounds nuw %"class.cv::BmpDecoder", ptr %15, i32 0, i32 9
  %72 = getelementptr inbounds [4 x float], ptr %71, i64 0, i64 0
  %73 = load float, ptr %72, align 8, !tbaa !69
  %74 = fmul float %70, %73
  %75 = fptoui float %74 to i8
  %76 = load ptr, ptr %7, align 8, !tbaa !10
  %77 = getelementptr inbounds i8, ptr %76, i64 2
  store i8 %75, ptr %77, align 1, !tbaa !85
  %78 = load i8, ptr %10, align 1, !tbaa !79, !range !91, !noundef !92
  %79 = trunc i8 %78 to i1
  br i1 %79, label %80, label %107

80:                                               ; preds = %24
  %81 = getelementptr inbounds nuw %"class.cv::BmpDecoder", ptr %15, i32 0, i32 8
  %82 = getelementptr inbounds [4 x i32], ptr %81, i64 0, i64 3
  %83 = load i32, ptr %82, align 4, !tbaa !80
  %84 = icmp sge i32 %83, 0
  br i1 %84, label %85, label %103

85:                                               ; preds = %80
  %86 = getelementptr inbounds nuw %"class.cv::BmpDecoder", ptr %15, i32 0, i32 7
  %87 = getelementptr inbounds [4 x i32], ptr %86, i64 0, i64 3
  %88 = load i32, ptr %87, align 4, !tbaa !80
  %89 = load i32, ptr %13, align 4, !tbaa !80
  %90 = and i32 %88, %89
  %91 = getelementptr inbounds nuw %"class.cv::BmpDecoder", ptr %15, i32 0, i32 8
  %92 = getelementptr inbounds [4 x i32], ptr %91, i64 0, i64 3
  %93 = load i32, ptr %92, align 4, !tbaa !80
  %94 = lshr i32 %90, %93
  %95 = uitofp i32 %94 to float
  %96 = getelementptr inbounds nuw %"class.cv::BmpDecoder", ptr %15, i32 0, i32 9
  %97 = getelementptr inbounds [4 x float], ptr %96, i64 0, i64 3
  %98 = load float, ptr %97, align 4, !tbaa !69
  %99 = fmul float %95, %98
  %100 = fptoui float %99 to i8
  %101 = load ptr, ptr %7, align 8, !tbaa !10
  %102 = getelementptr inbounds i8, ptr %101, i64 3
  store i8 %100, ptr %102, align 1, !tbaa !85
  br label %106

103:                                              ; preds = %80
  %104 = load ptr, ptr %7, align 8, !tbaa !10
  %105 = getelementptr inbounds i8, ptr %104, i64 3
  store i8 -1, ptr %105, align 1, !tbaa !85
  br label %106

106:                                              ; preds = %103, %85
  br label %107

107:                                              ; preds = %106, %24
  call void @llvm.lifetime.end.p0(i64 4, ptr %13) #3
  br label %108

108:                                              ; preds = %107
  %109 = load i32, ptr %12, align 4, !tbaa !80
  %110 = add nsw i32 %109, 1
  store i32 %110, ptr %12, align 4, !tbaa !80
  %111 = load i32, ptr %11, align 4, !tbaa !80
  %112 = load ptr, ptr %7, align 8, !tbaa !10
  %113 = sext i32 %111 to i64
  %114 = getelementptr inbounds i8, ptr %112, i64 %113
  store ptr %114, ptr %7, align 8, !tbaa !10
  %115 = load ptr, ptr %8, align 8, !tbaa !10
  %116 = getelementptr inbounds i8, ptr %115, i64 4
  store ptr %116, ptr %8, align 8, !tbaa !10
  br label %19, !llvm.loop !125

117:                                              ; preds = %23
  call void @llvm.lifetime.end.p0(i64 4, ptr %11) #3
  ret void
}