; Function Attrs: mustprogress nofree norecurse nosync nounwind memory(argmem: readwrite) uwtable
define hidden void @_ZN2cv10BmpDecoder8maskBGRAEPhPKhib(ptr noundef nonnull readonly align 8 captures(none) dereferenceable(1520) %0, ptr noundef writeonly captures(none) %1, ptr noundef readonly captures(none) %2, i32 noundef %3, i1 noundef zeroext %4) local_unnamed_addr #14 align 2 {
  %6 = icmp sgt i32 %3, 0
  br i1 %6, label %.lr.ph, label %._crit_edge

.lr.ph:                                           ; preds = %5
  %7 = getelementptr inbounds nuw i8, ptr %0, i64 1472
  %8 = getelementptr inbounds nuw i8, ptr %0, i64 1480
  %9 = getelementptr inbounds nuw i8, ptr %0, i64 1488
  %10 = getelementptr inbounds nuw i8, ptr %0, i64 1496
  %11 = getelementptr inbounds nuw i8, ptr %0, i64 1504
  %12 = getelementptr inbounds nuw i8, ptr %0, i64 1512
  %13 = getelementptr inbounds nuw i8, ptr %0, i64 1476
  %14 = getelementptr inbounds nuw i8, ptr %0, i64 1492
  %15 = getelementptr inbounds nuw i8, ptr %0, i64 1508
  %16 = getelementptr inbounds nuw i8, ptr %0, i64 1500
  %17 = getelementptr inbounds nuw i8, ptr %0, i64 1484
  %18 = getelementptr inbounds nuw i8, ptr %0, i64 1516
  br i1 %4, label %.lr.ph.split.us, label %.lr.ph.split

.lr.ph.split.us:                                  ; preds = %.lr.ph, %56
  %.023.us = phi ptr [ %59, %56 ], [ %1, %.lr.ph ]
  %.01822.us = phi i32 [ %58, %56 ], [ 0, %.lr.ph ]
  %.01921.us = phi ptr [ %60, %56 ], [ %2, %.lr.ph ]
  %19 = load i32, ptr %.01921.us, align 4, !tbaa !84
  %20 = load i32, ptr %8, align 8, !tbaa !84
  %21 = and i32 %20, %19
  %22 = load i32, ptr %10, align 8, !tbaa !84
  %23 = lshr i32 %21, %22
  %24 = uitofp i32 %23 to float
  %25 = load float, ptr %12, align 8, !tbaa !61
  %26 = fmul float %25, %24
  %27 = fptoui float %26 to i8
  store i8 %27, ptr %.023.us, align 1, !tbaa !87
  %28 = load i32, ptr %13, align 4, !tbaa !84
  %29 = and i32 %28, %19
  %30 = load i32, ptr %14, align 4, !tbaa !84
  %31 = lshr i32 %29, %30
  %32 = uitofp i32 %31 to float
  %33 = load float, ptr %15, align 4, !tbaa !61
  %34 = fmul float %33, %32
  %35 = fptoui float %34 to i8
  %36 = getelementptr inbounds nuw i8, ptr %.023.us, i64 1
  store i8 %35, ptr %36, align 1, !tbaa !87
  %37 = load i32, ptr %7, align 8, !tbaa !84
  %38 = and i32 %37, %19
  %39 = load i32, ptr %9, align 8, !tbaa !84
  %40 = lshr i32 %38, %39
  %41 = uitofp i32 %40 to float
  %42 = load float, ptr %11, align 8, !tbaa !61
  %43 = fmul float %42, %41
  %44 = fptoui float %43 to i8
  %45 = getelementptr inbounds nuw i8, ptr %.023.us, i64 2
  store i8 %44, ptr %45, align 1, !tbaa !87
  %46 = load i32, ptr %16, align 4, !tbaa !84
  %47 = icmp sgt i32 %46, -1
  br i1 %47, label %48, label %56

48:                                               ; preds = %.lr.ph.split.us
  %49 = load i32, ptr %17, align 4, !tbaa !84
  %50 = and i32 %49, %19
  %51 = lshr i32 %50, %46
  %52 = uitofp i32 %51 to float
  %53 = load float, ptr %18, align 4, !tbaa !61
  %54 = fmul float %53, %52
  %55 = fptoui float %54 to i8
  br label %56

56:                                               ; preds = %.lr.ph.split.us, %48
  %.sink = phi i8 [ %55, %48 ], [ -1, %.lr.ph.split.us ]
  %57 = getelementptr inbounds nuw i8, ptr %.023.us, i64 3
  store i8 %.sink, ptr %57, align 1, !tbaa !87
  %58 = add nuw nsw i32 %.01822.us, 1
  %59 = getelementptr inbounds nuw i8, ptr %.023.us, i64 4
  %60 = getelementptr inbounds nuw i8, ptr %.01921.us, i64 4
  %exitcond25.not = icmp eq i32 %58, %3
  br i1 %exitcond25.not, label %._crit_edge, label %.lr.ph.split.us, !llvm.loop !108

._crit_edge:                                      ; preds = %.lr.ph.split, %56, %5
  ret void

.lr.ph.split:                                     ; preds = %.lr.ph, %.lr.ph.split
  %.023 = phi ptr [ %89, %.lr.ph.split ], [ %1, %.lr.ph ]
  %.01822 = phi i32 [ %88, %.lr.ph.split ], [ 0, %.lr.ph ]
  %.01921 = phi ptr [ %90, %.lr.ph.split ], [ %2, %.lr.ph ]
  %61 = load i32, ptr %.01921, align 4, !tbaa !84
  %62 = load i32, ptr %8, align 8, !tbaa !84
  %63 = and i32 %62, %61
  %64 = load i32, ptr %10, align 8, !tbaa !84
  %65 = lshr i32 %63, %64
  %66 = uitofp i32 %65 to float
  %67 = load float, ptr %12, align 8, !tbaa !61
  %68 = fmul float %67, %66
  %69 = fptoui float %68 to i8
  store i8 %69, ptr %.023, align 1, !tbaa !87
  %70 = load i32, ptr %13, align 4, !tbaa !84
  %71 = and i32 %70, %61
  %72 = load i32, ptr %14, align 4, !tbaa !84
  %73 = lshr i32 %71, %72
  %74 = uitofp i32 %73 to float
  %75 = load float, ptr %15, align 4, !tbaa !61
  %76 = fmul float %75, %74
  %77 = fptoui float %76 to i8
  %78 = getelementptr inbounds nuw i8, ptr %.023, i64 1
  store i8 %77, ptr %78, align 1, !tbaa !87
  %79 = load i32, ptr %7, align 8, !tbaa !84
  %80 = and i32 %79, %61
  %81 = load i32, ptr %9, align 8, !tbaa !84
  %82 = lshr i32 %80, %81
  %83 = uitofp i32 %82 to float
  %84 = load float, ptr %11, align 8, !tbaa !61
  %85 = fmul float %84, %83
  %86 = fptoui float %85 to i8
  %87 = getelementptr inbounds nuw i8, ptr %.023, i64 2
  store i8 %86, ptr %87, align 1, !tbaa !87
  %88 = add nuw nsw i32 %.01822, 1
  %89 = getelementptr inbounds nuw i8, ptr %.023, i64 3
  %90 = getelementptr inbounds nuw i8, ptr %.01921, i64 4
  %exitcond.not = icmp eq i32 %88, %3
  br i1 %exitcond.not, label %._crit_edge, label %.lr.ph.split, !llvm.loop !108
}